target datalayout = "e-m:e-p270:32:32-p271:32:32-p272:64:64-i64:64-i128:128-f80:128-n8:16:32:64-S128"
target triple = "x86_64-pc-linux-gnu"

; Function Attrs: nounwind uwtable
define void @lv_obj_set_grid_cell(ptr noundef %0, i32 noundef %1, i32 noundef %2, i32 noundef %3, i32 noundef %4, i32 noundef %5, i32 noundef %6) #0 {
  %8 = alloca ptr, align 8
  %9 = alloca i32, align 4
  %10 = alloca i32, align 4
  %11 = alloca i32, align 4
  %12 = alloca i32, align 4
  %13 = alloca i32, align 4
  %14 = alloca i32, align 4
  store ptr %0, ptr %8, align 8, !tbaa !22
  store i32 %1, ptr %9, align 4, !tbaa !23
  store i32 %2, ptr %10, align 4, !tbaa !23
  store i32 %3, ptr %11, align 4, !tbaa !23
  store i32 %4, ptr %12, align 4, !tbaa !23
  store i32 %5, ptr %13, align 4, !tbaa !23
  store i32 %6, ptr %14, align 4, !tbaa !23
  %15 = load ptr, ptr %8, align 8, !tbaa !22
  %16 = load i32, ptr %10, align 4, !tbaa !23
  call void @lv_obj_set_style_grid_cell_column_pos(ptr noundef %15, i32 noundef %16, i32 noundef 0)
  %17 = load ptr, ptr %8, align 8, !tbaa !22
  %18 = load i32, ptr %13, align 4, !tbaa !23
  call void @lv_obj_set_style_grid_cell_row_pos(ptr noundef %17, i32 noundef %18, i32 noundef 0)
  %19 = load ptr, ptr %8, align 8, !tbaa !22
  %20 = load i32, ptr %9, align 4, !tbaa !23
  call void @lv_obj_set_style_grid_cell_x_align(ptr noundef %19, i32 noundef %20, i32 noundef 0)
  %21 = load ptr, ptr %8, align 8, !tbaa !22
  %22 = load i32, ptr %11, align 4, !tbaa !23
  call void @lv_obj_set_style_grid_cell_column_span(ptr noundef %21, i32 noundef %22, i32 noundef 0)
  %23 = load ptr, ptr %8, align 8, !tbaa !22
  %24 = load i32, ptr %14, align 4, !tbaa !23
  call void @lv_obj_set_style_grid_cell_row_span(ptr noundef %23, i32 noundef %24, i32 noundef 0)
  %25 = load ptr, ptr %8, align 8, !tbaa !22
  %26 = load i32, ptr %12, align 4, !tbaa !23
  call void @lv_obj_set_style_grid_cell_y_align(ptr noundef %25, i32 noundef %26, i32 noundef 0)
  %27 = load ptr, ptr %8, align 8, !tbaa !22
  %28 = call ptr @lv_obj_get_parent(ptr noundef %27)
  call void @lv_obj_mark_layout_as_dirty(ptr noundef %28)
  ret void
}