; Function Attrs: nounwind uwtable
define void @lv_obj_set_grid_cell(ptr noundef %0, i32 noundef %1, i32 noundef %2, i32 noundef %3, i32 noundef %4, i32 noundef %5, i32 noundef %6) local_unnamed_addr #1 {
  tail call void @lv_obj_set_style_grid_cell_column_pos(ptr noundef %0, i32 noundef %2, i32 noundef 0) #6
  tail call void @lv_obj_set_style_grid_cell_row_pos(ptr noundef %0, i32 noundef %5, i32 noundef 0) #6
  tail call void @lv_obj_set_style_grid_cell_x_align(ptr noundef %0, i32 noundef %1, i32 noundef 0) #6
  tail call void @lv_obj_set_style_grid_cell_column_span(ptr noundef %0, i32 noundef %3, i32 noundef 0) #6
  tail call void @lv_obj_set_style_grid_cell_row_span(ptr noundef %0, i32 noundef %6, i32 noundef 0) #6
  tail call void @lv_obj_set_style_grid_cell_y_align(ptr noundef %0, i32 noundef %4, i32 noundef 0) #6
  %8 = tail call ptr @lv_obj_get_parent(ptr noundef %0) #6
  tail call void @lv_obj_mark_layout_as_dirty(ptr noundef %8) #6
  ret void
}